(dp0
S'\xee\xc8*$1O\xf1=)0\xa6\x7f\xd4l\xe7\xfd'
p1
(S'webpage/syncedFiles/Exp06_AmpOp02_201501.pdf'
p2
(dp3
<<<<<<< HEAD
L247232645266552L
=======
L149890844831704L
>>>>>>> 776b265b166593b6bc442100681c13f21d25f6b8
I1
stp4
sS'\x12\xd7y\x90y\xba\x06\xfc[?H#S\xd7R\x92'
p5
(S'webpage/syncedFiles/nod.gif'
p6
(dp7
<<<<<<< HEAD
L247232645266552L
=======
L149890844831704L
>>>>>>> 776b265b166593b6bc442100681c13f21d25f6b8
I1
stp8
sS'4\xf7Y)\xbe@ \xfeH\xeb\xe1]\x8c\xd9\x879'
p9
(S'webpage/syncedFiles/SO Resp Lista 6.txt'
p10
(dp11
<<<<<<< HEAD
L247232645266552L
=======
L149890844831704L
>>>>>>> 776b265b166593b6bc442100681c13f21d25f6b8
I1
stp12
sS'hs\xc9RN\xce\xcd\x9e\tz\n/J\x9e\xdc\xe9'
p13
(S'webpage/syncedFiles/bode.jpg'
p14
(dp15
<<<<<<< HEAD
L247232645266552L
=======
L149890844831704L
>>>>>>> 776b265b166593b6bc442100681c13f21d25f6b8
I1
stp16
sS'v\xbc]Ii\x0b\x8c\xfd\x90\tyF\x14 \xe9\xdd'
p17
(S'webpage/syncedFiles/Captura de Tela (55).png'
p18
(dp19
<<<<<<< HEAD
L247232645266552L
=======
L149890844831704L
>>>>>>> 776b265b166593b6bc442100681c13f21d25f6b8
I1
stp20
sS'R\xd6\xadI;\nx\xe7O\xa0\x7fS\xf9\xa7\x8a\xb6'
p21
(S'webpage/syncedFiles/Pasta1.xlsx'
p22
(dp23
<<<<<<< HEAD
L247232645266552L
=======
L149890844831704L
>>>>>>> 776b265b166593b6bc442100681c13f21d25f6b8
I1
stp24
sS'\xc3Bk\xb0\xd8\xc0~0\xbc\xbb\xe4B\x9e"\x92\x01'
p25
(S'webpage/syncedFiles/DCEexp5.odt'
p26
(dp27
<<<<<<< HEAD
L247232645266552L
=======
L149890844831704L
>>>>>>> 776b265b166593b6bc442100681c13f21d25f6b8
I1
stp28
s.